(dp0
S'libraries'
p1
(lp2
ccompounddb.models
LibraryHeader
p3
(tRp4
(dp5
S'count'
p6
L3649L
sS'selected'
p7
I00
sS'id'
p8
I11
sS'name'
p9
VLatca
p10
sbag3
(tRp11
(dp12
g6
L29518L
sg7
I00
sg8
I13
sg9
VAurora
p13
sbag3
(tRp14
(dp15
g6
L2768L
sg7
I00
sg8
I16
sg9
VClickables
p16
sbag3
(tRp17
(dp18
g6
L28340L
sg7
I00
sg8
I18
sg9
VBindingDB
p19
sbag3
(tRp20
(dp21
g6
L222400L
sg7
I00
sg8
I19
sg9
VChemBank
p22
sbag3
(tRp23
(dp24
g6
L12000L
sg7
I00
sg8
I21
sg9
VLifeChem 12K
p25
sbag3
(tRp26
(dp27
g6
L20000L
sg7
I00
sg8
I22
sg9
VChemBridge Diverset 20K
p28
sbag3
(tRp29
(dp30
g6
L10000L
sg7
I00
sg8
I23
sg9
VChemBridge Microformat
p31
sbag3
(tRp32
(dp33
g6
L10000L
sg7
I00
sg8
I25
sg9
VChemBridge NovaCore
p34
sbag3
(tRp35
(dp36
g6
L15427L
sg7
I00
sg8
I26
sg9
VKEGG
p37
sbag3
(tRp38
(dp39
g6
L4886L
sg7
I00
sg8
I27
sg9
VDrugBank
p40
sbag3
(tRp41
(dp42
g6
L1998L
sg7
I00
sg8
I28
sg9
VMicrosource Spectrum
p43
sbag3
(tRp44
(dp45
g6
L250250L
sg7
I01
sg8
I29
sg9
VNCI
p46
sbag3
(tRp47
(dp48
g6
L2816L
sg7
I00
sg8
I30
sg9
VPeakdale
p49
sbag3
(tRp50
(dp51
g6
L10000L
sg7
I00
sg8
I31
sg9
VSigma-TimTec Myria Screen
p52
sbag3
(tRp53
(dp54
g6
L761998L
sg7
I00
sg8
I38
sg9
VPubChem Bioassay
p55
sbasS'input_mode'
p56
S'smiles-input'
p57
sS'selected_libs'
p58
(lp59
VNCI
p60
asS'post_data'
p61
ccopy_reg
_reconstructor
p62
(cdjango.http
QueryDict
p63
c__builtin__
dict
p64
(dp65
Vsmiles
p66
(lp67
VC12c(c3c(s1)CCCC3)c(=O)[nH]c(n2)c1cc(c(c(c1)Cl)OCC#C)OCC
p68
asVlibrary
p69
g59
stp70
Rp71
(dp72
S'_encoding'
p73
S'utf-8'
p74
sS'_data'
p75
(dp76
g66
g67
sg69
g59
ssS'_mutable'
p77
I00
sbsS'query_url'
p78
S'http://chemmine.ucr.edu/renderer/1f4f6e9b3f9c5bb322daa4d59df35fa0'
p79
s.